; Function Attrs: mustprogress uwtable
define noundef ptr @_ZNK7rocksdb4test29Standard128RibbonFilterPolicy21GetBuilderWithContextERKNS_21FilterBuildingContextE(ptr noundef nonnull align 8 dereferenceable(64) %this, ptr nocapture noundef nonnull readonly align 8 dereferenceable(68) %context) unnamed_addr #3 align 2 {
entry:
  %millibits_per_key_.i = getelementptr inbounds i8, ptr %this, i64 32
  %0 = load i32, ptr %millibits_per_key_.i, align 8
  %cmp = icmp eq i32 %0, 0
  br i1 %cmp, label %return, label %if.end

if.end:                                           ; preds = %entry
  %call2 = tail call noundef ptr @_ZNK7rocksdb21BloomLikeFilterPolicy38GetStandard128RibbonBuilderWithContextERKNS_21FilterBuildingContextE(ptr noundef nonnull align 8 dereferenceable(64) %this, ptr noundef nonnull align 8 dereferenceable(68) %context)
  br label %return

return:                                           ; preds = %entry, %if.end
  %retval.0 = phi ptr [ %call2, %if.end ], [ null, %entry ]
  ret ptr %retval.0
}